target datalayout = "e-m:e-p270:32:32-p271:32:32-p272:64:64-i64:64-i128:128-f80:128-n8:16:32:64-S128"
target triple = "x86_64-pc-linux-gnu"

%struct.FT_FaceRec_ = type { i64, i64, i64, i64, i64, ptr, ptr, i32, ptr, i32, ptr, %struct.FT_Generic_, %struct.FT_BBox_, i16, i16, i16, i16, i16, i16, i16, i16, ptr, ptr, ptr, ptr, ptr, ptr, %struct.FT_ListRec_, %struct.FT_Generic_, ptr, ptr }
%struct.FT_BBox_ = type { i64, i64, i64, i64 }
%struct.FT_ListRec_ = type { ptr, ptr }
%struct.FT_Generic_ = type { ptr, ptr }
%struct.TT_FaceRec_ = type { %struct.FT_FaceRec_, %struct.TTC_HeaderRec_, i64, i16, ptr, %struct.TT_Header_, %struct.TT_HoriHeader_, %struct.TT_MaxProfile_, i8, %struct.TT_VertHeader_, i16, %struct.TT_NameTableRec_, %struct.TT_OS2_, %struct.TT_Postscript_, ptr, i64, ptr, ptr, ptr, ptr, ptr, ptr, ptr, ptr, ptr, ptr, ptr, ptr, %struct.TT_Gasp_, %struct.TT_PCLT_, i64, ptr, %struct.TT_Post_NamesRec_, %struct.FT_Palette_Data_, i16, ptr, i8, %struct.FT_Color_, i64, ptr, i64, ptr, i64, ptr, ptr, %struct.FT_Generic_, ptr, i64, i64, i8, i8, ptr, i32, ptr, i32, i32, ptr, i64, i64, i64, ptr, ptr, i64, i32, i64, ptr, ptr, i64, i32, i32, ptr, ptr, i64, i32, i32, i32, %struct.TT_BDFRec_, i64, i64, i64, i64, ptr, ptr, ptr }
%struct.TTC_HeaderRec_ = type { i64, i64, i64, ptr }
%struct.TT_Header_ = type { i64, i64, i64, i64, i16, i16, [2 x i64], [2 x i64], i16, i16, i16, i16, i16, i16, i16, i16, i16 }
%struct.TT_HoriHeader_ = type { i64, i16, i16, i16, i16, i16, i16, i16, i16, i16, i16, [4 x i16], i16, i16, ptr, ptr }
%struct.TT_MaxProfile_ = type { i64, i16, i16, i16, i16, i16, i16, i16, i16, i16, i16, i16, i16, i16, i16 }
%struct.TT_VertHeader_ = type { i64, i16, i16, i16, i16, i16, i16, i16, i16, i16, i16, [4 x i16], i16, i16, ptr, ptr }
%struct.TT_NameTableRec_ = type { i16, i32, i32, ptr, i32, ptr, ptr }
%struct.TT_OS2_ = type { i16, i16, i16, i16, i16, i16, i16, i16, i16, i16, i16, i16, i16, i16, i16, i16, [10 x i8], i64, i64, i64, i64, [4 x i8], i16, i16, i16, i16, i16, i16, i16, i16, i64, i64, i16, i16, i16, i16, i16, i16, i16 }
%struct.TT_Postscript_ = type { i64, i64, i16, i16, i64, i64, i64, i64, i64 }
%struct.TT_Gasp_ = type { i16, i16, ptr }
%struct.TT_PCLT_ = type { i64, i64, i16, i16, i16, i16, i16, i16, [16 x i8], [8 x i8], [6 x i8], i8, i8, i8, i8 }
%struct.TT_Post_NamesRec_ = type { i8, i16, i16, ptr, ptr }
%struct.FT_Palette_Data_ = type { i16, ptr, ptr, i16, ptr }
%struct.FT_Color_ = type { i8, i8, i8, i8 }
%struct.TT_BDFRec_ = type { ptr, ptr, ptr, i64, i32, i8 }

; Function Attrs: nounwind uwtable
define internal void @tt_face_free_ps_names(ptr noundef %0) #0 {
  %2 = alloca ptr, align 8
  %3 = alloca ptr, align 8
  %4 = alloca ptr, align 8
  store ptr %0, ptr %2, align 8
  %5 = load ptr, ptr %2, align 8
  %6 = getelementptr inbounds %struct.TT_FaceRec_, ptr %5, i32 0, i32 0
  %7 = getelementptr inbounds %struct.FT_FaceRec_, ptr %6, i32 0, i32 25
  %8 = load ptr, ptr %7, align 8
  store ptr %8, ptr %3, align 8
  %9 = load ptr, ptr %2, align 8
  %10 = getelementptr inbounds %struct.TT_FaceRec_, ptr %9, i32 0, i32 32
  store ptr %10, ptr %4, align 8
  %11 = load ptr, ptr %4, align 8
  %12 = getelementptr inbounds %struct.TT_Post_NamesRec_, ptr %11, i32 0, i32 1
  %13 = load i16, ptr %12, align 2
  %14 = icmp ne i16 %13, 0
  br i1 %14, label %15, label %26

15:                                               ; preds = %1
  br label %16

16:                                               ; preds = %15
  %17 = load ptr, ptr %3, align 8
  %18 = load ptr, ptr %4, align 8
  %19 = getelementptr inbounds %struct.TT_Post_NamesRec_, ptr %18, i32 0, i32 3
  %20 = load ptr, ptr %19, align 8
  call void @ft_mem_free(ptr noundef %17, ptr noundef %20)
  %21 = load ptr, ptr %4, align 8
  %22 = getelementptr inbounds %struct.TT_Post_NamesRec_, ptr %21, i32 0, i32 3
  store ptr null, ptr %22, align 8
  br label %23

23:                                               ; preds = %16
  %24 = load ptr, ptr %4, align 8
  %25 = getelementptr inbounds %struct.TT_Post_NamesRec_, ptr %24, i32 0, i32 1
  store i16 0, ptr %25, align 2
  br label %26

26:                                               ; preds = %23, %1
  %27 = load ptr, ptr %4, align 8
  %28 = getelementptr inbounds %struct.TT_Post_NamesRec_, ptr %27, i32 0, i32 2
  %29 = load i16, ptr %28, align 4
  %30 = icmp ne i16 %29, 0
  br i1 %30, label %31, label %42

31:                                               ; preds = %26
  br label %32

32:                                               ; preds = %31
  %33 = load ptr, ptr %3, align 8
  %34 = load ptr, ptr %4, align 8
  %35 = getelementptr inbounds %struct.TT_Post_NamesRec_, ptr %34, i32 0, i32 4
  %36 = load ptr, ptr %35, align 8
  call void @ft_mem_free(ptr noundef %33, ptr noundef %36)
  %37 = load ptr, ptr %4, align 8
  %38 = getelementptr inbounds %struct.TT_Post_NamesRec_, ptr %37, i32 0, i32 4
  store ptr null, ptr %38, align 8
  br label %39

39:                                               ; preds = %32
  %40 = load ptr, ptr %4, align 8
  %41 = getelementptr inbounds %struct.TT_Post_NamesRec_, ptr %40, i32 0, i32 2
  store i16 0, ptr %41, align 4
  br label %42

42:                                               ; preds = %39, %26
  %43 = load ptr, ptr %4, align 8
  %44 = getelementptr inbounds %struct.TT_Post_NamesRec_, ptr %43, i32 0, i32 0
  store i8 0, ptr %44, align 8
  ret void
}