; Function Attrs: nounwind uwtable
define internal void @tt_face_free_ps_names(ptr nocapture noundef %0) #0 {
  %2 = getelementptr inbounds i8, ptr %0, i64 184
  %3 = load ptr, ptr %2, align 8
  %4 = getelementptr inbounds i8, ptr %0, i64 1026
  %5 = load i16, ptr %4, align 2
  %.not = icmp eq i16 %5, 0
  br i1 %.not, label %9, label %6

6:                                                ; preds = %1
  %7 = getelementptr inbounds i8, ptr %0, i64 1032
  %8 = load ptr, ptr %7, align 8
  tail call void @ft_mem_free(ptr noundef %3, ptr noundef %8) #26
  store ptr null, ptr %7, align 8
  store i16 0, ptr %4, align 2
  br label %9

9:                                                ; preds = %6, %1
  %10 = getelementptr inbounds i8, ptr %0, i64 1028
  %11 = load i16, ptr %10, align 4
  %.not13 = icmp eq i16 %11, 0
  br i1 %.not13, label %15, label %12

12:                                               ; preds = %9
  %13 = getelementptr inbounds i8, ptr %0, i64 1040
  %14 = load ptr, ptr %13, align 8
  tail call void @ft_mem_free(ptr noundef %3, ptr noundef %14) #26
  store ptr null, ptr %13, align 8
  store i16 0, ptr %10, align 4
  br label %15

15:                                               ; preds = %12, %9
  %16 = getelementptr inbounds i8, ptr %0, i64 1024
  store i8 0, ptr %16, align 8
  ret void
}